; Function Attrs: nounwind uwtable
define noalias nonnull ptr @l_Lake_LeanLib_extraDep(ptr noundef %0) local_unnamed_addr #0 {
  %2 = getelementptr inbounds nuw i8, ptr %0, i64 8
  %3 = load ptr, ptr %2, align 8, !tbaa !4
  %4 = ptrtoint ptr %3 to i64
  %5 = and i64 %4, 1
  %.not = icmp eq i64 %5, 0
  br i1 %.not, label %6, label %lean_inc.exit21

6:                                                ; preds = %1
  %.val.i = load i32, ptr %3, align 4, !tbaa !8
  %7 = icmp sgt i32 %.val.i, 0
  br i1 %7, label %8, label %10, !prof !11

8:                                                ; preds = %6
  %9 = add nuw i32 %.val.i, 1
  store i32 %9, ptr %3, align 4, !tbaa !8
  br label %lean_inc.exit21

10:                                               ; preds = %6
  %.not.i22 = icmp eq i32 %.val.i, 0
  br i1 %.not.i22, label %lean_inc.exit21, label %11

11:                                               ; preds = %10
  tail call void @lean_inc_ref_cold(ptr noundef nonnull %3) #3
  br label %lean_inc.exit21

lean_inc.exit21:                                  ; preds = %11, %10, %8, %1
  %12 = getelementptr inbounds nuw i8, ptr %0, i64 16
  %13 = load ptr, ptr %12, align 8, !tbaa !4
  %14 = ptrtoint ptr %13 to i64
  %15 = and i64 %14, 1
  %.not30 = icmp eq i64 %15, 0
  br i1 %.not30, label %16, label %lean_inc.exit20

16:                                               ; preds = %lean_inc.exit21
  %.val.i23 = load i32, ptr %13, align 4, !tbaa !8
  %17 = icmp sgt i32 %.val.i23, 0
  br i1 %17, label %18, label %20, !prof !11

18:                                               ; preds = %16
  %19 = add nuw i32 %.val.i23, 1
  store i32 %19, ptr %13, align 4, !tbaa !8
  br label %lean_inc.exit20

20:                                               ; preds = %16
  %.not.i24 = icmp eq i32 %.val.i23, 0
  br i1 %.not.i24, label %lean_inc.exit20, label %21

21:                                               ; preds = %20
  tail call void @lean_inc_ref_cold(ptr noundef nonnull %13) #3
  br label %lean_inc.exit20

lean_inc.exit20:                                  ; preds = %21, %20, %18, %lean_inc.exit21
  %22 = getelementptr inbounds nuw i8, ptr %3, i64 8
  %23 = load ptr, ptr %22, align 8, !tbaa !4
  %24 = ptrtoint ptr %23 to i64
  %25 = and i64 %24, 1
  %.not31 = icmp eq i64 %25, 0
  br i1 %.not31, label %26, label %lean_inc.exit

26:                                               ; preds = %lean_inc.exit20
  %.val.i26 = load i32, ptr %23, align 4, !tbaa !8
  %27 = icmp sgt i32 %.val.i26, 0
  br i1 %27, label %28, label %30, !prof !11

28:                                               ; preds = %26
  %29 = add nuw i32 %.val.i26, 1
  store i32 %29, ptr %23, align 4, !tbaa !8
  br label %lean_inc.exit

30:                                               ; preds = %26
  %.not.i27 = icmp eq i32 %.val.i26, 0
  br i1 %.not.i27, label %lean_inc.exit, label %31

31:                                               ; preds = %30
  tail call void @lean_inc_ref_cold(ptr noundef nonnull %23) #3
  br label %lean_inc.exit

lean_inc.exit:                                    ; preds = %31, %30, %28, %lean_inc.exit20
  br i1 %.not, label %32, label %lean_dec.exit

32:                                               ; preds = %lean_inc.exit
  %33 = load i32, ptr %3, align 4, !tbaa !8
  %34 = icmp sgt i32 %33, 1
  br i1 %34, label %35, label %37, !prof !11

35:                                               ; preds = %32
  %36 = add nsw i32 %33, -1
  store i32 %36, ptr %3, align 4, !tbaa !8
  br label %lean_dec.exit

37:                                               ; preds = %32
  %.not.i = icmp eq i32 %33, 0
  br i1 %.not.i, label %lean_dec.exit, label %38

38:                                               ; preds = %37
  tail call void @lean_dec_ref_cold(ptr noundef nonnull %3) #3
  br label %lean_dec.exit

lean_dec.exit:                                    ; preds = %38, %37, %35, %lean_inc.exit
  tail call void @lean_inc_heartbeat() #3
  %39 = tail call noalias ptr @mi_malloc_small(i64 noundef 24) #3
  %40 = icmp eq ptr %39, null
  br i1 %40, label %41, label %lean_alloc_ctor.exit

41:                                               ; preds = %lean_dec.exit
  tail call void @lean_internal_panic_out_of_memory() #4
  unreachable

lean_alloc_ctor.exit:                             ; preds = %lean_dec.exit
  %42 = getelementptr inbounds nuw i8, ptr %39, i64 4
  store i32 1, ptr %39, align 4, !tbaa !8
  store i32 33685528, ptr %42, align 4
  %43 = getelementptr inbounds nuw i8, ptr %39, i64 8
  store ptr %23, ptr %43, align 8, !tbaa !4
  %44 = getelementptr inbounds nuw i8, ptr %39, i64 16
  store ptr %13, ptr %44, align 8, !tbaa !4
  %45 = load ptr, ptr @l_Lake_instDataKindLeanLib___closed__2, align 8, !tbaa !4
  %46 = load ptr, ptr @l_Lake_LeanLib_extraDepFacet, align 8, !tbaa !4
  tail call void @lean_inc_heartbeat() #3
  %47 = tail call noalias ptr @mi_malloc_small(i64 noundef 40) #3
  %48 = icmp eq ptr %47, null
  br i1 %48, label %49, label %lean_alloc_ctor.exit29

49:                                               ; preds = %lean_alloc_ctor.exit
  tail call void @lean_internal_panic_out_of_memory() #4
  unreachable

lean_alloc_ctor.exit29:                           ; preds = %lean_alloc_ctor.exit
  %50 = getelementptr inbounds nuw i8, ptr %47, i64 4
  store i32 1, ptr %47, align 4, !tbaa !8
  store i32 17039400, ptr %50, align 4
  %51 = getelementptr inbounds nuw i8, ptr %47, i64 8
  store ptr %39, ptr %51, align 8, !tbaa !4
  %52 = getelementptr inbounds nuw i8, ptr %47, i64 16
  store ptr %45, ptr %52, align 8, !tbaa !4
  %53 = getelementptr inbounds nuw i8, ptr %47, i64 24
  store ptr %0, ptr %53, align 8, !tbaa !4
  %54 = getelementptr inbounds nuw i8, ptr %47, i64 32
  store ptr %46, ptr %54, align 8, !tbaa !4
  ret ptr %47
}